target datalayout = "e-m:e-p270:32:32-p271:32:32-p272:64:64-i64:64-i128:128-f80:128-n8:16:32:64-S128"
target triple = "x86_64-pc-linux-gnu"

@avail_cores_per_sock = internal global ptr null, align 8

; Function Attrs: nounwind uwtable
define internal i32 @_sort_sockets_by_avail_cores(ptr noundef %0, ptr noundef %1) #0 {
  %3 = alloca ptr, align 8
  %4 = alloca ptr, align 8
  store ptr %0, ptr %3, align 8
  store ptr %1, ptr %4, align 8
  %5 = load ptr, ptr @avail_cores_per_sock, align 8
  %6 = load ptr, ptr %3, align 8
  %7 = load i32, ptr %6, align 4
  %8 = sext i32 %7 to i64
  %9 = getelementptr inbounds i16, ptr %5, i64 %8
  %10 = load ptr, ptr @avail_cores_per_sock, align 8
  %11 = load ptr, ptr %4, align 8
  %12 = load i32, ptr %11, align 4
  %13 = sext i32 %12 to i64
  %14 = getelementptr inbounds i16, ptr %10, i64 %13
  %15 = call i32 @slurm_sort_uint16_list_desc(ptr noundef %9, ptr noundef %14)
  ret i32 %15
}